; Function Attrs: mustprogress nounwind uwtable
define dso_local void @_ZN22btGenericPoolAllocatorD0Ev(ptr noundef nonnull align 8 dereferenceable(160) %this) unnamed_addr #4 align 2 personality ptr @__gxx_personality_v0 {
entry:
  store ptr getelementptr inbounds ({ [4 x ptr] }, ptr @_ZTV22btGenericPoolAllocator, i64 0, i32 0, i64 2), ptr %this, align 8
  %m_pool_count.i = getelementptr inbounds i8, ptr %this, i64 152
  %0 = load i64, ptr %m_pool_count.i, align 8
  %cmp6.not.i = icmp eq i64 %0, 0
  br i1 %cmp6.not.i, label %_ZN22btGenericPoolAllocatorD2Ev.exit, label %for.body.lr.ph.i

for.body.lr.ph.i:                                 ; preds = %entry
  %m_pools.i = getelementptr inbounds i8, ptr %this, i64 24
  br label %for.body.i

for.body.i:                                       ; preds = %for.inc.i, %for.body.lr.ph.i
  %i.07.i = phi i64 [ 0, %for.body.lr.ph.i ], [ %inc.i, %for.inc.i ]
  %arrayidx.i = getelementptr inbounds [16 x ptr], ptr %m_pools.i, i64 0, i64 %i.07.i
  %1 = load ptr, ptr %arrayidx.i, align 8
  %2 = load ptr, ptr %1, align 8
  invoke void @_Z21btAlignedFreeInternalPv(ptr noundef %2)
          to label %.noexc.i unwind label %terminate.lpad.i

.noexc.i:                                         ; preds = %for.body.i
  %m_free_nodes.i.i = getelementptr inbounds i8, ptr %1, i64 8
  %3 = load ptr, ptr %m_free_nodes.i.i, align 8
  invoke void @_Z21btAlignedFreeInternalPv(ptr noundef %3)
          to label %.noexc4.i unwind label %terminate.lpad.i

.noexc4.i:                                        ; preds = %.noexc.i
  %m_allocated_sizes.i.i = getelementptr inbounds i8, ptr %1, i64 16
  %4 = load ptr, ptr %m_allocated_sizes.i.i, align 8
  invoke void @_Z21btAlignedFreeInternalPv(ptr noundef %4)
          to label %invoke.cont.i unwind label %terminate.lpad.i

invoke.cont.i:                                    ; preds = %.noexc4.i
  %m_allocated_count.i.i = getelementptr inbounds i8, ptr %1, i64 24
  tail call void @llvm.memset.p0.i64(ptr noundef nonnull align 8 dereferenceable(16) %m_allocated_count.i.i, i8 0, i64 16, i1 false)
  %5 = load ptr, ptr %arrayidx.i, align 8
  invoke void @_Z21btAlignedFreeInternalPv(ptr noundef %5)
          to label %for.inc.i unwind label %terminate.lpad.i

for.inc.i:                                        ; preds = %invoke.cont.i
  %inc.i = add nuw i64 %i.07.i, 1
  %6 = load i64, ptr %m_pool_count.i, align 8
  %cmp.i = icmp ult i64 %inc.i, %6
  br i1 %cmp.i, label %for.body.i, label %_ZN22btGenericPoolAllocatorD2Ev.exit, !llvm.loop !8

terminate.lpad.i:                                 ; preds = %invoke.cont.i, %.noexc4.i, %.noexc.i, %for.body.i
  %7 = landingpad { ptr, i32 }
          catch ptr null
  %8 = extractvalue { ptr, i32 } %7, 0
  tail call void @__clang_call_terminate(ptr %8) #12
  unreachable

_ZN22btGenericPoolAllocatorD2Ev.exit:             ; preds = %for.inc.i, %entry
  tail call void @_ZdlPv(ptr noundef nonnull %this) #14
  ret void
}